; Function Attrs: mustprogress uwtable
define dso_local void @_ZN7testing18TestEventListenersC2Ev(ptr noundef nonnull writeonly align 8 captures(none) dereferenceable(24) initializes((0, 24)) %0) unnamed_addr #3 align 2 personality ptr @__gxx_personality_v0 {
  %2 = tail call noalias noundef nonnull dereferenceable(40) ptr @_Znwm(i64 noundef 40) #56
  store ptr getelementptr inbounds nuw inrange(-16, 144) (i8, ptr @_ZTVN7testing8internal17TestEventRepeaterE, i64 16), ptr %2, align 8, !tbaa !33
  %3 = getelementptr inbounds nuw i8, ptr %2, i64 8
  store i8 1, ptr %3, align 8, !tbaa !243
  %4 = getelementptr inbounds nuw i8, ptr %2, i64 16
  tail call void @llvm.memset.p0.i64(ptr noundef nonnull align 8 dereferenceable(24) %4, i8 0, i64 24, i1 false)
  store ptr %2, ptr %0, align 8, !tbaa !242
  %5 = getelementptr inbounds nuw i8, ptr %0, i64 8
  tail call void @llvm.memset.p0.i64(ptr noundef nonnull align 8 dereferenceable(16) %5, i8 0, i64 16, i1 false)
  ret void
}